; Function Attrs: mustprogress uwtable
define noundef zeroext i1 @_ZNK32pxrInternal_v0_24__pxrReserved__16UsdGeomXformable17ClearXformOpOrderEv(ptr noundef nonnull align 8 dereferenceable(24) %0) local_unnamed_addr #0 align 2 personality ptr @__gxx_personality_v0 {
  %2 = alloca %"class.std::vector.98", align 8
  call void @llvm.memset.p0.i64(ptr noundef nonnull align 8 dereferenceable(24) %2, i8 0, i64 24, i1 false)
  %3 = invoke noundef zeroext i1 @_ZNK32pxrInternal_v0_24__pxrReserved__16UsdGeomXformable15SetXformOpOrderERKSt6vectorINS_14UsdGeomXformOpESaIS2_EEb(ptr noundef nonnull align 8 dereferenceable(24) %0, ptr noundef nonnull align 8 dereferenceable(24) %2, i1 noundef zeroext false)
          to label %_ZNSt6vectorIN32pxrInternal_v0_24__pxrReserved__14UsdGeomXformOpESaIS1_EED2Ev.exit unwind label %4

_ZNSt6vectorIN32pxrInternal_v0_24__pxrReserved__14UsdGeomXformOpESaIS1_EED2Ev.exit: ; preds = %1
  ret i1 %3

4:                                                ; preds = %1
  %5 = landingpad { ptr, i32 }
          cleanup
  call void @_ZNSt6vectorIN32pxrInternal_v0_24__pxrReserved__14UsdGeomXformOpESaIS1_EED2Ev(ptr noundef nonnull align 8 dereferenceable(24) %2) #20
  resume { ptr, i32 } %5
}